target datalayout = "e-m:e-p270:32:32-p271:32:32-p272:64:64-i64:64-i128:128-f80:128-n8:16:32:64-S128"
target triple = "x86_64-pc-linux-gnu"

%struct.user = type { ptr, i32, ptr, ptr, ptr }
%struct.redisCommand = type { ptr, ptr, ptr, ptr, i32, ptr, ptr, i32, ptr, i32, ptr, i32, ptr, i32, i64, i64, ptr, i32, ptr, i32, ptr, ptr, i64, i64, i64, i64, i32, ptr, ptr, %struct.keySpec, ptr, ptr, ptr }
%struct.keySpec = type { ptr, i64, i32, %union.anon, i32, %union.anon.2 }
%union.anon = type { %struct.anon.1 }
%struct.anon.1 = type { ptr, i32 }
%union.anon.2 = type { %struct.anon.3 }
%struct.anon.3 = type { i32, i32, i32 }

@.str.22 = private unnamed_addr constant [6 x i8] c"acl.c\00", align 1
@.str.124 = private unnamed_addr constant [51 x i8] c"User %S has no permissions to run the '%S' command\00", align 1
@.str.125 = private unnamed_addr constant [50 x i8] c"User %S has no permissions to access the '%S' key\00", align 1
@.str.126 = private unnamed_addr constant [31 x i8] c"No permissions to access a key\00", align 1
@.str.127 = private unnamed_addr constant [54 x i8] c"User %S has no permissions to access the '%S' channel\00", align 1
@.str.128 = private unnamed_addr constant [35 x i8] c"No permissions to access a channel\00", align 1
@.str.129 = private unnamed_addr constant [39 x i8] c"Reached deadcode on getAclErrorMessage\00", align 1

; Function Attrs: nounwind uwtable
define dso_local ptr @getAclErrorMessage(i32 noundef %0, ptr noundef %1, ptr noundef %2, ptr noundef %3, i32 noundef %4) #0 {
  %6 = alloca ptr, align 8
  %7 = alloca i32, align 4
  %8 = alloca ptr, align 8
  %9 = alloca ptr, align 8
  %10 = alloca ptr, align 8
  %11 = alloca i32, align 4
  store i32 %0, ptr %7, align 4, !tbaa !17
  store ptr %1, ptr %8, align 8, !tbaa !32
  store ptr %2, ptr %9, align 8, !tbaa !108
  store ptr %3, ptr %10, align 8, !tbaa !5
  store i32 %4, ptr %11, align 4, !tbaa !17
  %12 = load i32, ptr %7, align 4, !tbaa !17
  switch i32 %12, label %46 [
    i32 1, label %13
    i32 2, label %22
    i32 4, label %34
  ]

13:                                               ; preds = %5
  %14 = call ptr @sdsempty()
  %15 = load ptr, ptr %8, align 8, !tbaa !32
  %16 = getelementptr inbounds nuw %struct.user, ptr %15, i32 0, i32 0
  %17 = load ptr, ptr %16, align 8, !tbaa !89
  %18 = load ptr, ptr %9, align 8, !tbaa !108
  %19 = getelementptr inbounds nuw %struct.redisCommand, ptr %18, i32 0, i32 27
  %20 = load ptr, ptr %19, align 8, !tbaa !134
  %21 = call ptr (ptr, ptr, ...) @sdscatfmt(ptr noundef %14, ptr noundef @.str.124, ptr noundef %17, ptr noundef %20)
  store ptr %21, ptr %6, align 8
  br label %47

22:                                               ; preds = %5
  %23 = load i32, ptr %11, align 4, !tbaa !17
  %24 = icmp ne i32 %23, 0
  br i1 %24, label %25, label %32

25:                                               ; preds = %22
  %26 = call ptr @sdsempty()
  %27 = load ptr, ptr %8, align 8, !tbaa !32
  %28 = getelementptr inbounds nuw %struct.user, ptr %27, i32 0, i32 0
  %29 = load ptr, ptr %28, align 8, !tbaa !89
  %30 = load ptr, ptr %10, align 8, !tbaa !5
  %31 = call ptr (ptr, ptr, ...) @sdscatfmt(ptr noundef %26, ptr noundef @.str.125, ptr noundef %29, ptr noundef %30)
  store ptr %31, ptr %6, align 8
  br label %47

32:                                               ; preds = %22
  %33 = call ptr @sdsnew(ptr noundef @.str.126)
  store ptr %33, ptr %6, align 8
  br label %47

34:                                               ; preds = %5
  %35 = load i32, ptr %11, align 4, !tbaa !17
  %36 = icmp ne i32 %35, 0
  br i1 %36, label %37, label %44

37:                                               ; preds = %34
  %38 = call ptr @sdsempty()
  %39 = load ptr, ptr %8, align 8, !tbaa !32
  %40 = getelementptr inbounds nuw %struct.user, ptr %39, i32 0, i32 0
  %41 = load ptr, ptr %40, align 8, !tbaa !89
  %42 = load ptr, ptr %10, align 8, !tbaa !5
  %43 = call ptr (ptr, ptr, ...) @sdscatfmt(ptr noundef %38, ptr noundef @.str.127, ptr noundef %41, ptr noundef %42)
  store ptr %43, ptr %6, align 8
  br label %47

44:                                               ; preds = %34
  %45 = call ptr @sdsnew(ptr noundef @.str.128)
  store ptr %45, ptr %6, align 8
  br label %47

46:                                               ; preds = %5
  call void (ptr, i32, ptr, ...) @_serverPanic(ptr noundef @.str.22, i32 noundef 2770, ptr noundef @.str.129)
  call void @abort() #15
  unreachable

47:                                               ; preds = %44, %37, %32, %25, %13
  %48 = load ptr, ptr %6, align 8
  ret ptr %48
}