; Function Attrs: nounwind uwtable
define dso_local ptr @getAclErrorMessage(i32 noundef %0, ptr noundef readonly captures(none) %1, ptr noundef readonly captures(none) %2, ptr noundef %3, i32 noundef %4) local_unnamed_addr #0 {
  switch i32 %0, label %26 [
    i32 1, label %6
    i32 2, label %12
    i32 4, label %19
  ]

6:                                                ; preds = %5
  %7 = tail call ptr @sdsempty() #25
  %8 = load ptr, ptr %1, align 8, !tbaa !88
  %9 = getelementptr inbounds nuw i8, ptr %2, i64 216
  %10 = load ptr, ptr %9, align 8, !tbaa !126
  %11 = tail call ptr (ptr, ptr, ...) @sdscatfmt(ptr noundef %7, ptr noundef nonnull @.str.124, ptr noundef %8, ptr noundef %10) #25
  br label %27

12:                                               ; preds = %5
  %.not9 = icmp eq i32 %4, 0
  br i1 %.not9, label %17, label %13

13:                                               ; preds = %12
  %14 = tail call ptr @sdsempty() #25
  %15 = load ptr, ptr %1, align 8, !tbaa !88
  %16 = tail call ptr (ptr, ptr, ...) @sdscatfmt(ptr noundef %14, ptr noundef nonnull @.str.125, ptr noundef %15, ptr noundef %3) #25
  br label %27

17:                                               ; preds = %12
  %18 = tail call ptr @sdsnew(ptr noundef nonnull @.str.126) #25
  br label %27

19:                                               ; preds = %5
  %.not = icmp eq i32 %4, 0
  br i1 %.not, label %24, label %20

20:                                               ; preds = %19
  %21 = tail call ptr @sdsempty() #25
  %22 = load ptr, ptr %1, align 8, !tbaa !88
  %23 = tail call ptr (ptr, ptr, ...) @sdscatfmt(ptr noundef %21, ptr noundef nonnull @.str.127, ptr noundef %22, ptr noundef %3) #25
  br label %27

24:                                               ; preds = %19
  %25 = tail call ptr @sdsnew(ptr noundef nonnull @.str.128) #25
  br label %27

26:                                               ; preds = %5
  tail call void (ptr, i32, ptr, ...) @_serverPanic(ptr noundef nonnull @.str.22, i32 noundef 2770, ptr noundef nonnull @.str.129) #25
  tail call void @abort() #27
  unreachable

27:                                               ; preds = %24, %20, %17, %13, %6
  %.0 = phi ptr [ %23, %20 ], [ %25, %24 ], [ %16, %13 ], [ %18, %17 ], [ %11, %6 ]
  ret ptr %.0
}